target datalayout = "e-m:e-p270:32:32-p271:32:32-p272:64:64-i64:64-i128:128-f80:128-n8:16:32:64-S128"
target triple = "x86_64-pc-linux-gnu"

@.str.593 = private unnamed_addr constant [35 x i8] c"Common Industrial Protocol, Motion\00", align 1
@.str.594 = private unnamed_addr constant [11 x i8] c"CIP Motion\00", align 1
@.str.595 = private unnamed_addr constant [5 x i8] c"cipm\00", align 1
@proto_cipmotion = internal global i32 0, align 4
@.str.596 = private unnamed_addr constant [43 x i8] c"Common Industrial Protocol, Motion - Rev 3\00", align 1
@.str.597 = private unnamed_addr constant [19 x i8] c"CIP Motion - Rev 3\00", align 1
@.str.598 = private unnamed_addr constant [6 x i8] c"cipm3\00", align 1
@proto_cipmotion3 = internal global i32 0, align 4
@.str.599 = private unnamed_addr constant [28 x i8] c"display_full_attribute_data\00", align 1
@.str.600 = private unnamed_addr constant [54 x i8] c"Display full attribute data in the Service Data Block\00", align 1
@.str.601 = private unnamed_addr constant [82 x i8] c"Whether the CIP Motion dissector always display the full raw attribute data bytes\00", align 1
@display_full_attribute_data = internal global i32 0, align 4
@.str.602 = private unnamed_addr constant [10 x i8] c"cipmotion\00", align 1
@cipmotion_handle = internal global ptr null, align 8
@.str.603 = private unnamed_addr constant [11 x i8] c"cipmotion3\00", align 1
@cipmotion3_handle = internal global ptr null, align 8

; Function Attrs: nounwind uwtable
define hidden void @proto_register_cipmotion() #0 {
  %1 = alloca ptr, align 8
  %2 = alloca ptr, align 8
  %3 = call i32 @proto_register_protocol(ptr noundef @.str.593, ptr noundef @.str.594, ptr noundef @.str.595)
  store i32 %3, ptr @proto_cipmotion, align 4
  %4 = load i32, ptr @proto_cipmotion, align 4
  %5 = call i32 @proto_register_protocol_in_name_only(ptr noundef @.str.596, ptr noundef @.str.597, ptr noundef @.str.598, i32 noundef %4, i32 noundef 1)
  store i32 %5, ptr @proto_cipmotion3, align 4
  %6 = load i32, ptr @proto_cipmotion, align 4
  call void @proto_register_field_array(i32 noundef %6, ptr noundef @proto_register_cipmotion.hf, i32 noundef 231)
  call void @proto_register_subtree_array(ptr noundef @proto_register_cipmotion.cip_subtree, i32 noundef 31)
  %7 = load i32, ptr @proto_cipmotion, align 4
  %8 = call ptr @expert_register_protocol(i32 noundef %7)
  store ptr %8, ptr %1, align 8
  %9 = load ptr, ptr %1, align 8
  call void @expert_register_field_array(ptr noundef %9, ptr noundef @proto_register_cipmotion.ei, i32 noundef 1)
  %10 = load i32, ptr @proto_cipmotion, align 4
  %11 = call ptr @prefs_register_protocol(i32 noundef %10, ptr noundef null)
  store ptr %11, ptr %2, align 8
  %12 = load ptr, ptr %2, align 8
  call void @prefs_register_bool_preference(ptr noundef %12, ptr noundef @.str.599, ptr noundef @.str.600, ptr noundef @.str.601, ptr noundef @display_full_attribute_data)
  %13 = load i32, ptr @proto_cipmotion, align 4
  %14 = call ptr @register_dissector(ptr noundef @.str.602, ptr noundef @dissect_cipmotion, i32 noundef %13)
  store ptr %14, ptr @cipmotion_handle, align 8
  %15 = load i32, ptr @proto_cipmotion3, align 4
  %16 = call ptr @register_dissector(ptr noundef @.str.603, ptr noundef @dissect_cipmotion3, i32 noundef %15)
  store ptr %16, ptr @cipmotion3_handle, align 8
  ret void
}