; Function Attrs: nounwind uwtable
define hidden void @proto_register_cipmotion() local_unnamed_addr #0 {
  %1 = tail call i32 @proto_register_protocol(ptr noundef nonnull @.str.593, ptr noundef nonnull @.str.594, ptr noundef nonnull @.str.595) #4
  store i32 %1, ptr @proto_cipmotion, align 4
  %2 = tail call i32 @proto_register_protocol_in_name_only(ptr noundef nonnull @.str.596, ptr noundef nonnull @.str.597, ptr noundef nonnull @.str.598, i32 noundef %1, i32 noundef 1) #4
  store i32 %2, ptr @proto_cipmotion3, align 4
  %3 = load i32, ptr @proto_cipmotion, align 4
  tail call void @proto_register_field_array(i32 noundef %3, ptr noundef nonnull @proto_register_cipmotion.hf, i32 noundef 231) #4
  tail call void @proto_register_subtree_array(ptr noundef nonnull @proto_register_cipmotion.cip_subtree, i32 noundef 31) #4
  %4 = load i32, ptr @proto_cipmotion, align 4
  %5 = tail call ptr @expert_register_protocol(i32 noundef %4) #4
  tail call void @expert_register_field_array(ptr noundef %5, ptr noundef nonnull @proto_register_cipmotion.ei, i32 noundef 1) #4
  %6 = load i32, ptr @proto_cipmotion, align 4
  %7 = tail call ptr @prefs_register_protocol(i32 noundef %6, ptr noundef null) #4
  tail call void @prefs_register_bool_preference(ptr noundef %7, ptr noundef nonnull @.str.599, ptr noundef nonnull @.str.600, ptr noundef nonnull @.str.601, ptr noundef nonnull @display_full_attribute_data) #4
  %8 = load i32, ptr @proto_cipmotion, align 4
  %9 = tail call ptr @register_dissector(ptr noundef nonnull @.str.602, ptr noundef nonnull @dissect_cipmotion, i32 noundef %8) #4
  store ptr %9, ptr @cipmotion_handle, align 8
  %10 = load i32, ptr @proto_cipmotion3, align 4
  %11 = tail call ptr @register_dissector(ptr noundef nonnull @.str.603, ptr noundef nonnull @dissect_cipmotion3, i32 noundef %10) #4
  store ptr %11, ptr @cipmotion3_handle, align 8
  ret void
}